(lp0
(lp1
S'^'
p2
aS'<'
p3
aS'v'
p4
aS'v'
p5
aS'>'
p6
aS'<'
p7
aS'^'
p8
aS'>'
p9
aS'<'
p10
aS'>'
p11
aS'^'
p12
aS'>'
p13
aS'^'
p14
aS'<'
p15
aS'<'
p16
aS'>'
p17
aS'<'
p18
aS'>'
p19
aS'>'
p20
aS'^'
p21
aa(lp22
S'v'
p23
aS'>'
p24
aS'v'
p25
aS'>'
p26
aS'^'
p27
aS'^'
p28
aS'v'
p29
aS'>'
p30
aS'<'
p31
aS'^'
p32
aS'None'
p33
aS'v'
p34
aS'^'
p35
aS'<'
p36
aS'>'
p37
aS'>'
p38
aS'v'
p39
aS'^'
p40
aS'^'
p41
aS'<'
p42
aa(lp43
S'^'
p44
aS'>'
p45
aS'v'
p46
aS'>'
p47
aS'v'
p48
aS'>'
p49
aS'^'
p50
aS'>'
p51
aS'<'
p52
aS'<'
p53
aS'<'
p54
aS'^'
p55
aS'>'
p56
aS'^'
p57
aS'<'
p58
aS'^'
p59
aS'>'
p60
aS'<'
p61
aS'<'
p62
aS'^'
p63
aa(lp64
S'>'
p65
aS'^'
p66
aS'v'
p67
aS'>'
p68
aS'v'
p69
aS'>'
p70
aS'v'
p71
aS'<'
p72
aS'<'
p73
aS'<'
p74
aS'<'
p75
aS'^'
p76
aS'^'
p77
aS'v'
p78
aS'<'
p79
aS'^'
p80
aS'<'
p81
aS'^'
p82
aS'^'
p83
aS'>'
p84
aa(lp85
S'^'
p86
aS'<'
p87
aS'v'
p88
aS'<'
p89
aS'^'
p90
aS'>'
p91
aS'v'
p92
aS'v'
p93
aS'>'
p94
aS'^'
p95
aS'v'
p96
aS'^'
p97
aS'>'
p98
aS'^'
p99
aS'>'
p100
aS'v'
p101
aS'v'
p102
aS'v'
p103
aS'None'
p104
aS'v'
p105
aa(lp106
S'<'
p107
aS'<'
p108
aS'<'
p109
aS'^'
p110
aS'^'
p111
aS'^'
p112
aS'>'
p113
aS'>'
p114
aS'None'
p115
aS'v'
p116
aS'v'
p117
aS'<'
p118
aS'v'
p119
aS'^'
p120
aS'<'
p121
aS'>'
p122
aS'^'
p123
aS'None'
p124
aS'^'
p125
aS'<'
p126
aa(lp127
S'^'
p128
aS'^'
p129
aS'>'
p130
aS'^'
p131
aS'<'
p132
aS'^'
p133
aS'^'
p134
aS'<'
p135
aS'<'
p136
aS'^'
p137
aS'^'
p138
aS'v'
p139
aS'^'
p140
aS'v'
p141
aS'v'
p142
aS'^'
p143
aS'None'
p144
aS'v'
p145
aS'>'
p146
aS'v'
p147
aa(lp148
S'v'
p149
aS'v'
p150
aS'>'
p151
aS'>'
p152
aS'v'
p153
aS'v'
p154
aS'None'
p155
aS'None'
p156
aS'^'
p157
aS'^'
p158
aS'>'
p159
aS'>'
p160
aS'>'
p161
aS'>'
p162
aS'>'
p163
aS'None'
p164
aS'<'
p165
aS'<'
p166
aS'^'
p167
aS'v'
p168
aa(lp169
S'v'
p170
aS'>'
p171
aS'>'
p172
aS'>'
p173
aS'v'
p174
aS'v'
p175
aS'^'
p176
aS'v'
p177
aS'None'
p178
aS'^'
p179
aS'>'
p180
aS'^'
p181
aS'v'
p182
aS'<'
p183
aS'None'
p184
aS'<'
p185
aS'^'
p186
aS'^'
p187
aS'<'
p188
aS'>'
p189
aa(lp190
S'<'
p191
aS'>'
p192
aS'^'
p193
aS'None'
p194
aS'<'
p195
aS'>'
p196
aS'>'
p197
aS'v'
p198
aS'v'
p199
aS'None'
p200
aS'v'
p201
aS'<'
p202
aS'None'
p203
aS'None'
p204
aS'^'
p205
aS'>'
p206
aS'>'
p207
aS'<'
p208
aS'v'
p209
aS'v'
p210
aa(lp211
S'v'
p212
aS'v'
p213
aS'None'
p214
aS'>'
p215
aS'None'
p216
aS'v'
p217
aS'>'
p218
aS'^'
p219
aS'<'
p220
aS'v'
p221
aS'None'
p222
aS'None'
p223
aS'>'
p224
aS'<'
p225
aS'<'
p226
aS'^'
p227
aS'v'
p228
aS'^'
p229
aS'>'
p230
aS'>'
p231
aa(lp232
S'v'
p233
aS'None'
p234
aS'<'
p235
aS'^'
p236
aS'v'
p237
aS'None'
p238
aS'<'
p239
aS'v'
p240
aS'v'
p241
aS'<'
p242
aS'v'
p243
aS'>'
p244
aS'None'
p245
aS'v'
p246
aS'>'
p247
aS'>'
p248
aS'v'
p249
aS'>'
p250
aS'>'
p251
aS'^'
p252
aa(lp253
S'^'
p254
aS'None'
p255
aS'>'
p256
aS'^'
p257
aS'v'
p258
aS'^'
p259
aS'None'
p260
aS'^'
p261
aS'>'
p262
aS'v'
p263
aS'<'
p264
aS'v'
p265
aS'^'
p266
aS'v'
p267
aS'v'
p268
aS'>'
p269
aS'<'
p270
aS'<'
p271
aS'<'
p272
aS'<'
p273
aa(lp274
S'^'
p275
aS'<'
p276
aS'>'
p277
aS'^'
p278
aS'>'
p279
aS'None'
p280
aS'<'
p281
aS'>'
p282
aS'>'
p283
aS'^'
p284
aS'>'
p285
aS'None'
p286
aS'>'
p287
aS'v'
p288
aS'None'
p289
aS'>'
p290
aS'v'
p291
aS'^'
p292
aS'^'
p293
aS'>'
p294
aa(lp295
S'^'
p296
aS'None'
p297
aS'v'
p298
aS'v'
p299
aS'None'
p300
aS'v'
p301
aS'>'
p302
aS'^'
p303
aS'>'
p304
aS'>'
p305
aS'None'
p306
aS'>'
p307
aS'v'
p308
aS'>'
p309
aS'None'
p310
aS'<'
p311
aS'v'
p312
aS'v'
p313
aS'<'
p314
aS'^'
p315
aa(lp316
S'^'
p317
aS'None'
p318
aS'>'
p319
aS'<'
p320
aS'^'
p321
aS'None'
p322
aS'<'
p323
aS'>'
p324
aS'^'
p325
aS'None'
p326
aS'>'
p327
aS'<'
p328
aS'>'
p329
aS'v'
p330
aS'None'
p331
aS'None'
p332
aS'None'
p333
aS'None'
p334
aS'<'
p335
aS'<'
p336
aa(lp337
S'v'
p338
aS'None'
p339
aS'>'
p340
aS'v'
p341
aS'v'
p342
aS'^'
p343
aS'^'
p344
aS'^'
p345
aS'None'
p346
aS'<'
p347
aS'^'
p348
aS'v'
p349
aS'<'
p350
aS'^'
p351
aS'None'
p352
aS'v'
p353
aS'v'
p354
aS'v'
p355
aS'<'
p356
aS'v'
p357
aa(lp358
S'^'
p359
aS'None'
p360
aS'^'
p361
aS'^'
p362
aS'>'
p363
aS'>'
p364
aS'^'
p365
aS'None'
p366
aS'v'
p367
aS'v'
p368
aS'v'
p369
aS'v'
p370
aS'<'
p371
aS'<'
p372
aS'None'
p373
aS'<'
p374
aS'>'
p375
aS'^'
p376
aS'<'
p377
aS'v'
p378
aa(lp379
S'<'
p380
aS'None'
p381
aS'<'
p382
aS'>'
p383
aS'v'
p384
aS'^'
p385
aS'v'
p386
aS'None'
p387
aS'^'
p388
aS'>'
p389
aS'>'
p390
aS'^'
p391
aS'^'
p392
aS'>'
p393
aS'None'
p394
aS'^'
p395
aS'<'
p396
aS'<'
p397
aS'v'
p398
aS'>'
p399
aa(lp400
S'>'
p401
aS'None'
p402
aS'v'
p403
aS'>'
p404
aS'v'
p405
aS'<'
p406
aS'>'
p407
aS'v'
p408
aS'>'
p409
aS'>'
p410
aS'^'
p411
aS'>'
p412
aS'v'
p413
aS'v'
p414
aS'^'
p415
aS'<'
p416
aS'>'
p417
aS'^'
p418
aS'>'
p419
aS'>'
p420
aa.