(lp0
(lp1
S'^'
p2
aS'>'
p3
aS'>'
p4
aS'^'
p5
aS'v'
p6
aS'^'
p7
aS'<'
p8
aS'^'
p9
aS'<'
p10
aS'>'
p11
aS'v'
p12
aS'>'
p13
aS'>'
p14
aS'^'
p15
aS'v'
p16
aS'>'
p17
aS'v'
p18
aS'v'
p19
aS'>'
p20
aS'>'
p21
aa(lp22
S'<'
p23
aS'>'
p24
aS'^'
p25
aS'>'
p26
aS'v'
p27
aS'^'
p28
aS'v'
p29
aS'v'
p30
aS'v'
p31
aS'>'
p32
aS'None'
p33
aS'<'
p34
aS'v'
p35
aS'>'
p36
aS'<'
p37
aS'^'
p38
aS'<'
p39
aS'>'
p40
aS'^'
p41
aS'^'
p42
aa(lp43
S'^'
p44
aS'<'
p45
aS'^'
p46
aS'^'
p47
aS'>'
p48
aS'<'
p49
aS'<'
p50
aS'<'
p51
aS'^'
p52
aS'<'
p53
aS'<'
p54
aS'v'
p55
aS'>'
p56
aS'v'
p57
aS'^'
p58
aS'>'
p59
aS'<'
p60
aS'<'
p61
aS'<'
p62
aS'>'
p63
aa(lp64
S'>'
p65
aS'^'
p66
aS'>'
p67
aS'<'
p68
aS'<'
p69
aS'<'
p70
aS'>'
p71
aS'^'
p72
aS'>'
p73
aS'^'
p74
aS'>'
p75
aS'^'
p76
aS'<'
p77
aS'v'
p78
aS'v'
p79
aS'v'
p80
aS'v'
p81
aS'v'
p82
aS'<'
p83
aS'>'
p84
aa(lp85
S'<'
p86
aS'>'
p87
aS'^'
p88
aS'>'
p89
aS'^'
p90
aS'^'
p91
aS'<'
p92
aS'^'
p93
aS'<'
p94
aS'v'
p95
aS'v'
p96
aS'^'
p97
aS'>'
p98
aS'>'
p99
aS'>'
p100
aS'<'
p101
aS'<'
p102
aS'v'
p103
aS'None'
p104
aS'>'
p105
aa(lp106
S'^'
p107
aS'^'
p108
aS'^'
p109
aS'^'
p110
aS'>'
p111
aS'>'
p112
aS'^'
p113
aS'>'
p114
aS'None'
p115
aS'v'
p116
aS'^'
p117
aS'^'
p118
aS'v'
p119
aS'^'
p120
aS'<'
p121
aS'v'
p122
aS'v'
p123
aS'None'
p124
aS'v'
p125
aS'^'
p126
aa(lp127
S'^'
p128
aS'^'
p129
aS'<'
p130
aS'^'
p131
aS'<'
p132
aS'<'
p133
aS'^'
p134
aS'>'
p135
aS'>'
p136
aS'<'
p137
aS'^'
p138
aS'>'
p139
aS'^'
p140
aS'v'
p141
aS'v'
p142
aS'>'
p143
aS'None'
p144
aS'>'
p145
aS'<'
p146
aS'v'
p147
aa(lp148
S'v'
p149
aS'<'
p150
aS'<'
p151
aS'^'
p152
aS'v'
p153
aS'v'
p154
aS'None'
p155
aS'None'
p156
aS'v'
p157
aS'^'
p158
aS'>'
p159
aS'>'
p160
aS'v'
p161
aS'v'
p162
aS'v'
p163
aS'None'
p164
aS'>'
p165
aS'>'
p166
aS'<'
p167
aS'>'
p168
aa(lp169
S'v'
p170
aS'>'
p171
aS'>'
p172
aS'>'
p173
aS'>'
p174
aS'>'
p175
aS'<'
p176
aS'^'
p177
aS'None'
p178
aS'v'
p179
aS'v'
p180
aS'>'
p181
aS'^'
p182
aS'>'
p183
aS'None'
p184
aS'v'
p185
aS'>'
p186
aS'^'
p187
aS'^'
p188
aS'<'
p189
aa(lp190
S'>'
p191
aS'>'
p192
aS'^'
p193
aS'None'
p194
aS'>'
p195
aS'>'
p196
aS'>'
p197
aS'>'
p198
aS'^'
p199
aS'None'
p200
aS'<'
p201
aS'>'
p202
aS'None'
p203
aS'None'
p204
aS'v'
p205
aS'v'
p206
aS'>'
p207
aS'^'
p208
aS'v'
p209
aS'<'
p210
aa(lp211
S'^'
p212
aS'^'
p213
aS'None'
p214
aS'^'
p215
aS'None'
p216
aS'<'
p217
aS'^'
p218
aS'>'
p219
aS'v'
p220
aS'v'
p221
aS'None'
p222
aS'None'
p223
aS'<'
p224
aS'<'
p225
aS'>'
p226
aS'>'
p227
aS'>'
p228
aS'>'
p229
aS'^'
p230
aS'v'
p231
aa(lp232
S'^'
p233
aS'None'
p234
aS'>'
p235
aS'v'
p236
aS'>'
p237
aS'None'
p238
aS'v'
p239
aS'<'
p240
aS'<'
p241
aS'>'
p242
aS'>'
p243
aS'>'
p244
aS'None'
p245
aS'<'
p246
aS'>'
p247
aS'^'
p248
aS'^'
p249
aS'<'
p250
aS'v'
p251
aS'<'
p252
aa(lp253
S'^'
p254
aS'None'
p255
aS'^'
p256
aS'>'
p257
aS'>'
p258
aS'^'
p259
aS'None'
p260
aS'v'
p261
aS'<'
p262
aS'v'
p263
aS'>'
p264
aS'<'
p265
aS'<'
p266
aS'>'
p267
aS'<'
p268
aS'^'
p269
aS'>'
p270
aS'v'
p271
aS'v'
p272
aS'>'
p273
aa(lp274
S'^'
p275
aS'<'
p276
aS'>'
p277
aS'>'
p278
aS'v'
p279
aS'None'
p280
aS'<'
p281
aS'^'
p282
aS'^'
p283
aS'>'
p284
aS'<'
p285
aS'None'
p286
aS'v'
p287
aS'^'
p288
aS'None'
p289
aS'<'
p290
aS'^'
p291
aS'<'
p292
aS'^'
p293
aS'>'
p294
aa(lp295
S'^'
p296
aS'None'
p297
aS'>'
p298
aS'v'
p299
aS'None'
p300
aS'<'
p301
aS'>'
p302
aS'v'
p303
aS'>'
p304
aS'>'
p305
aS'None'
p306
aS'<'
p307
aS'>'
p308
aS'v'
p309
aS'None'
p310
aS'^'
p311
aS'v'
p312
aS'v'
p313
aS'<'
p314
aS'^'
p315
aa(lp316
S'^'
p317
aS'None'
p318
aS'>'
p319
aS'>'
p320
aS'>'
p321
aS'None'
p322
aS'<'
p323
aS'<'
p324
aS'>'
p325
aS'None'
p326
aS'^'
p327
aS'^'
p328
aS'<'
p329
aS'>'
p330
aS'None'
p331
aS'None'
p332
aS'None'
p333
aS'None'
p334
aS'>'
p335
aS'>'
p336
aa(lp337
S'^'
p338
aS'None'
p339
aS'v'
p340
aS'>'
p341
aS'>'
p342
aS'>'
p343
aS'v'
p344
aS'<'
p345
aS'None'
p346
aS'v'
p347
aS'^'
p348
aS'v'
p349
aS'<'
p350
aS'<'
p351
aS'None'
p352
aS'^'
p353
aS'>'
p354
aS'v'
p355
aS'v'
p356
aS'^'
p357
aa(lp358
S'^'
p359
aS'None'
p360
aS'<'
p361
aS'<'
p362
aS'^'
p363
aS'v'
p364
aS'v'
p365
aS'None'
p366
aS'<'
p367
aS'>'
p368
aS'^'
p369
aS'v'
p370
aS'<'
p371
aS'>'
p372
aS'None'
p373
aS'>'
p374
aS'<'
p375
aS'<'
p376
aS'v'
p377
aS'>'
p378
aa(lp379
S'^'
p380
aS'None'
p381
aS'>'
p382
aS'^'
p383
aS'>'
p384
aS'v'
p385
aS'v'
p386
aS'None'
p387
aS'^'
p388
aS'>'
p389
aS'^'
p390
aS'>'
p391
aS'>'
p392
aS'<'
p393
aS'None'
p394
aS'<'
p395
aS'<'
p396
aS'v'
p397
aS'<'
p398
aS'>'
p399
aa(lp400
S'^'
p401
aS'None'
p402
aS'v'
p403
aS'v'
p404
aS'>'
p405
aS'>'
p406
aS'>'
p407
aS'>'
p408
aS'>'
p409
aS'v'
p410
aS'<'
p411
aS'v'
p412
aS'^'
p413
aS'^'
p414
aS'<'
p415
aS'<'
p416
aS'^'
p417
aS'<'
p418
aS'v'
p419
aS'^'
p420
aa.