(lp0
(lp1
S'v'
p2
aS'^'
p3
aS'>'
p4
aS'^'
p5
aS'^'
p6
aS'<'
p7
aS'>'
p8
aS'>'
p9
aS'>'
p10
aS'<'
p11
aS'v'
p12
aS'^'
p13
aS'>'
p14
aS'^'
p15
aS'>'
p16
aS'^'
p17
aS'v'
p18
aS'^'
p19
aS'<'
p20
aS'^'
p21
aa(lp22
S'v'
p23
aS'<'
p24
aS'>'
p25
aS'>'
p26
aS'>'
p27
aS'v'
p28
aS'v'
p29
aS'<'
p30
aS'<'
p31
aS'<'
p32
aS'None'
p33
aS'<'
p34
aS'^'
p35
aS'v'
p36
aS'<'
p37
aS'>'
p38
aS'v'
p39
aS'<'
p40
aS'v'
p41
aS'v'
p42
aa(lp43
S'<'
p44
aS'<'
p45
aS'>'
p46
aS'v'
p47
aS'v'
p48
aS'v'
p49
aS'^'
p50
aS'>'
p51
aS'^'
p52
aS'<'
p53
aS'<'
p54
aS'^'
p55
aS'v'
p56
aS'v'
p57
aS'>'
p58
aS'>'
p59
aS'^'
p60
aS'<'
p61
aS'<'
p62
aS'v'
p63
aa(lp64
S'<'
p65
aS'v'
p66
aS'>'
p67
aS'^'
p68
aS'>'
p69
aS'v'
p70
aS'^'
p71
aS'^'
p72
aS'<'
p73
aS'^'
p74
aS'v'
p75
aS'>'
p76
aS'>'
p77
aS'v'
p78
aS'^'
p79
aS'^'
p80
aS'^'
p81
aS'v'
p82
aS'v'
p83
aS'>'
p84
aa(lp85
S'^'
p86
aS'v'
p87
aS'v'
p88
aS'^'
p89
aS'>'
p90
aS'>'
p91
aS'<'
p92
aS'<'
p93
aS'<'
p94
aS'v'
p95
aS'v'
p96
aS'>'
p97
aS'<'
p98
aS'<'
p99
aS'v'
p100
aS'v'
p101
aS'<'
p102
aS'v'
p103
aS'None'
p104
aS'>'
p105
aa(lp106
S'^'
p107
aS'^'
p108
aS'>'
p109
aS'<'
p110
aS'<'
p111
aS'>'
p112
aS'>'
p113
aS'>'
p114
aS'None'
p115
aS'v'
p116
aS'>'
p117
aS'<'
p118
aS'>'
p119
aS'>'
p120
aS'<'
p121
aS'>'
p122
aS'v'
p123
aS'None'
p124
aS'^'
p125
aS'>'
p126
aa(lp127
S'^'
p128
aS'>'
p129
aS'^'
p130
aS'^'
p131
aS'<'
p132
aS'^'
p133
aS'^'
p134
aS'>'
p135
aS'^'
p136
aS'<'
p137
aS'^'
p138
aS'<'
p139
aS'v'
p140
aS'>'
p141
aS'>'
p142
aS'<'
p143
aS'None'
p144
aS'>'
p145
aS'>'
p146
aS'<'
p147
aa(lp148
S'v'
p149
aS'<'
p150
aS'<'
p151
aS'^'
p152
aS'v'
p153
aS'v'
p154
aS'None'
p155
aS'None'
p156
aS'v'
p157
aS'<'
p158
aS'<'
p159
aS'v'
p160
aS'v'
p161
aS'v'
p162
aS'^'
p163
aS'None'
p164
aS'>'
p165
aS'v'
p166
aS'<'
p167
aS'^'
p168
aa(lp169
S'>'
p170
aS'v'
p171
aS'>'
p172
aS'>'
p173
aS'<'
p174
aS'>'
p175
aS'v'
p176
aS'^'
p177
aS'None'
p178
aS'>'
p179
aS'v'
p180
aS'>'
p181
aS'>'
p182
aS'v'
p183
aS'None'
p184
aS'^'
p185
aS'^'
p186
aS'^'
p187
aS'<'
p188
aS'>'
p189
aa(lp190
S'v'
p191
aS'>'
p192
aS'^'
p193
aS'None'
p194
aS'<'
p195
aS'>'
p196
aS'v'
p197
aS'>'
p198
aS'^'
p199
aS'None'
p200
aS'v'
p201
aS'>'
p202
aS'None'
p203
aS'None'
p204
aS'<'
p205
aS'v'
p206
aS'<'
p207
aS'v'
p208
aS'>'
p209
aS'v'
p210
aa(lp211
S'<'
p212
aS'^'
p213
aS'None'
p214
aS'<'
p215
aS'None'
p216
aS'>'
p217
aS'v'
p218
aS'>'
p219
aS'v'
p220
aS'^'
p221
aS'None'
p222
aS'None'
p223
aS'<'
p224
aS'<'
p225
aS'^'
p226
aS'<'
p227
aS'^'
p228
aS'v'
p229
aS'>'
p230
aS'^'
p231
aa(lp232
S'^'
p233
aS'None'
p234
aS'>'
p235
aS'^'
p236
aS'^'
p237
aS'None'
p238
aS'v'
p239
aS'v'
p240
aS'<'
p241
aS'>'
p242
aS'v'
p243
aS'v'
p244
aS'None'
p245
aS'>'
p246
aS'<'
p247
aS'v'
p248
aS'v'
p249
aS'v'
p250
aS'^'
p251
aS'v'
p252
aa(lp253
S'^'
p254
aS'None'
p255
aS'^'
p256
aS'>'
p257
aS'>'
p258
aS'>'
p259
aS'None'
p260
aS'^'
p261
aS'v'
p262
aS'>'
p263
aS'<'
p264
aS'>'
p265
aS'>'
p266
aS'^'
p267
aS'<'
p268
aS'v'
p269
aS'<'
p270
aS'<'
p271
aS'^'
p272
aS'<'
p273
aa(lp274
S'^'
p275
aS'^'
p276
aS'>'
p277
aS'^'
p278
aS'>'
p279
aS'None'
p280
aS'^'
p281
aS'v'
p282
aS'>'
p283
aS'>'
p284
aS'^'
p285
aS'None'
p286
aS'^'
p287
aS'^'
p288
aS'None'
p289
aS'v'
p290
aS'v'
p291
aS'<'
p292
aS'^'
p293
aS'^'
p294
aa(lp295
S'^'
p296
aS'None'
p297
aS'v'
p298
aS'>'
p299
aS'None'
p300
aS'v'
p301
aS'<'
p302
aS'v'
p303
aS'^'
p304
aS'<'
p305
aS'None'
p306
aS'^'
p307
aS'v'
p308
aS'>'
p309
aS'None'
p310
aS'<'
p311
aS'>'
p312
aS'v'
p313
aS'<'
p314
aS'>'
p315
aa(lp316
S'^'
p317
aS'None'
p318
aS'v'
p319
aS'>'
p320
aS'<'
p321
aS'None'
p322
aS'<'
p323
aS'^'
p324
aS'v'
p325
aS'None'
p326
aS'>'
p327
aS'^'
p328
aS'>'
p329
aS'>'
p330
aS'None'
p331
aS'None'
p332
aS'None'
p333
aS'None'
p334
aS'<'
p335
aS'<'
p336
aa(lp337
S'^'
p338
aS'None'
p339
aS'<'
p340
aS'v'
p341
aS'v'
p342
aS'v'
p343
aS'v'
p344
aS'>'
p345
aS'None'
p346
aS'^'
p347
aS'^'
p348
aS'^'
p349
aS'^'
p350
aS'<'
p351
aS'None'
p352
aS'^'
p353
aS'>'
p354
aS'<'
p355
aS'<'
p356
aS'v'
p357
aa(lp358
S'^'
p359
aS'None'
p360
aS'v'
p361
aS'>'
p362
aS'^'
p363
aS'<'
p364
aS'>'
p365
aS'None'
p366
aS'<'
p367
aS'v'
p368
aS'<'
p369
aS'v'
p370
aS'^'
p371
aS'^'
p372
aS'None'
p373
aS'<'
p374
aS'v'
p375
aS'^'
p376
aS'<'
p377
aS'>'
p378
aa(lp379
S'^'
p380
aS'None'
p381
aS'<'
p382
aS'^'
p383
aS'<'
p384
aS'>'
p385
aS'v'
p386
aS'None'
p387
aS'>'
p388
aS'>'
p389
aS'>'
p390
aS'>'
p391
aS'>'
p392
aS'^'
p393
aS'None'
p394
aS'^'
p395
aS'>'
p396
aS'^'
p397
aS'>'
p398
aS'<'
p399
aa(lp400
S'^'
p401
aS'None'
p402
aS'v'
p403
aS'>'
p404
aS'>'
p405
aS'<'
p406
aS'>'
p407
aS'>'
p408
aS'>'
p409
aS'>'
p410
aS'v'
p411
aS'>'
p412
aS'<'
p413
aS'>'
p414
aS'^'
p415
aS'v'
p416
aS'v'
p417
aS'^'
p418
aS'^'
p419
aS'>'
p420
aa.