(lp0
(lp1
S'>'
p2
aS'>'
p3
aS'>'
p4
aS'^'
p5
aS'^'
p6
aS'<'
p7
aS'^'
p8
aS'>'
p9
aS'<'
p10
aS'^'
p11
aS'v'
p12
aS'>'
p13
aS'^'
p14
aS'v'
p15
aS'<'
p16
aS'^'
p17
aS'v'
p18
aS'>'
p19
aS'>'
p20
aS'>'
p21
aa(lp22
S'>'
p23
aS'^'
p24
aS'^'
p25
aS'^'
p26
aS'<'
p27
aS'>'
p28
aS'^'
p29
aS'>'
p30
aS'>'
p31
aS'>'
p32
aS'None'
p33
aS'>'
p34
aS'>'
p35
aS'^'
p36
aS'v'
p37
aS'v'
p38
aS'>'
p39
aS'^'
p40
aS'^'
p41
aS'>'
p42
aa(lp43
S'^'
p44
aS'v'
p45
aS'^'
p46
aS'<'
p47
aS'<'
p48
aS'<'
p49
aS'v'
p50
aS'^'
p51
aS'<'
p52
aS'<'
p53
aS'<'
p54
aS'>'
p55
aS'<'
p56
aS'<'
p57
aS'^'
p58
aS'^'
p59
aS'<'
p60
aS'>'
p61
aS'>'
p62
aS'<'
p63
aa(lp64
S'>'
p65
aS'>'
p66
aS'<'
p67
aS'^'
p68
aS'>'
p69
aS'>'
p70
aS'<'
p71
aS'^'
p72
aS'<'
p73
aS'^'
p74
aS'<'
p75
aS'>'
p76
aS'>'
p77
aS'^'
p78
aS'<'
p79
aS'v'
p80
aS'v'
p81
aS'<'
p82
aS'<'
p83
aS'<'
p84
aa(lp85
S'^'
p86
aS'^'
p87
aS'<'
p88
aS'>'
p89
aS'>'
p90
aS'>'
p91
aS'^'
p92
aS'v'
p93
aS'v'
p94
aS'v'
p95
aS'^'
p96
aS'^'
p97
aS'>'
p98
aS'^'
p99
aS'v'
p100
aS'>'
p101
aS'^'
p102
aS'^'
p103
aS'None'
p104
aS'v'
p105
aa(lp106
S'^'
p107
aS'>'
p108
aS'>'
p109
aS'>'
p110
aS'^'
p111
aS'>'
p112
aS'^'
p113
aS'v'
p114
aS'None'
p115
aS'>'
p116
aS'v'
p117
aS'<'
p118
aS'^'
p119
aS'>'
p120
aS'^'
p121
aS'^'
p122
aS'v'
p123
aS'None'
p124
aS'<'
p125
aS'^'
p126
aa(lp127
S'^'
p128
aS'^'
p129
aS'^'
p130
aS'^'
p131
aS'>'
p132
aS'^'
p133
aS'>'
p134
aS'>'
p135
aS'>'
p136
aS'>'
p137
aS'v'
p138
aS'>'
p139
aS'v'
p140
aS'<'
p141
aS'^'
p142
aS'>'
p143
aS'None'
p144
aS'<'
p145
aS'>'
p146
aS'^'
p147
aa(lp148
S'^'
p149
aS'<'
p150
aS'>'
p151
aS'^'
p152
aS'v'
p153
aS'^'
p154
aS'None'
p155
aS'None'
p156
aS'v'
p157
aS'<'
p158
aS'>'
p159
aS'>'
p160
aS'^'
p161
aS'<'
p162
aS'<'
p163
aS'None'
p164
aS'v'
p165
aS'v'
p166
aS'>'
p167
aS'v'
p168
aa(lp169
S'>'
p170
aS'>'
p171
aS'>'
p172
aS'>'
p173
aS'v'
p174
aS'>'
p175
aS'^'
p176
aS'>'
p177
aS'None'
p178
aS'^'
p179
aS'^'
p180
aS'^'
p181
aS'^'
p182
aS'v'
p183
aS'None'
p184
aS'>'
p185
aS'<'
p186
aS'<'
p187
aS'<'
p188
aS'>'
p189
aa(lp190
S'^'
p191
aS'<'
p192
aS'v'
p193
aS'None'
p194
aS'<'
p195
aS'v'
p196
aS'>'
p197
aS'<'
p198
aS'^'
p199
aS'None'
p200
aS'>'
p201
aS'v'
p202
aS'None'
p203
aS'None'
p204
aS'<'
p205
aS'^'
p206
aS'<'
p207
aS'<'
p208
aS'^'
p209
aS'>'
p210
aa(lp211
S'^'
p212
aS'v'
p213
aS'None'
p214
aS'^'
p215
aS'None'
p216
aS'v'
p217
aS'^'
p218
aS'v'
p219
aS'^'
p220
aS'<'
p221
aS'None'
p222
aS'None'
p223
aS'>'
p224
aS'^'
p225
aS'>'
p226
aS'>'
p227
aS'<'
p228
aS'<'
p229
aS'^'
p230
aS'^'
p231
aa(lp232
S'^'
p233
aS'None'
p234
aS'<'
p235
aS'^'
p236
aS'v'
p237
aS'None'
p238
aS'<'
p239
aS'v'
p240
aS'^'
p241
aS'v'
p242
aS'>'
p243
aS'v'
p244
aS'None'
p245
aS'>'
p246
aS'>'
p247
aS'^'
p248
aS'v'
p249
aS'>'
p250
aS'^'
p251
aS'^'
p252
aa(lp253
S'^'
p254
aS'None'
p255
aS'^'
p256
aS'v'
p257
aS'<'
p258
aS'v'
p259
aS'None'
p260
aS'v'
p261
aS'<'
p262
aS'v'
p263
aS'v'
p264
aS'>'
p265
aS'>'
p266
aS'>'
p267
aS'v'
p268
aS'v'
p269
aS'v'
p270
aS'^'
p271
aS'^'
p272
aS'>'
p273
aa(lp274
S'^'
p275
aS'<'
p276
aS'>'
p277
aS'v'
p278
aS'<'
p279
aS'None'
p280
aS'>'
p281
aS'^'
p282
aS'>'
p283
aS'v'
p284
aS'<'
p285
aS'None'
p286
aS'>'
p287
aS'^'
p288
aS'None'
p289
aS'v'
p290
aS'v'
p291
aS'v'
p292
aS'^'
p293
aS'<'
p294
aa(lp295
S'^'
p296
aS'None'
p297
aS'>'
p298
aS'v'
p299
aS'None'
p300
aS'<'
p301
aS'^'
p302
aS'<'
p303
aS'v'
p304
aS'<'
p305
aS'None'
p306
aS'<'
p307
aS'v'
p308
aS'v'
p309
aS'None'
p310
aS'<'
p311
aS'<'
p312
aS'^'
p313
aS'^'
p314
aS'^'
p315
aa(lp316
S'^'
p317
aS'None'
p318
aS'<'
p319
aS'v'
p320
aS'>'
p321
aS'None'
p322
aS'v'
p323
aS'>'
p324
aS'>'
p325
aS'None'
p326
aS'v'
p327
aS'v'
p328
aS'v'
p329
aS'v'
p330
aS'None'
p331
aS'None'
p332
aS'None'
p333
aS'None'
p334
aS'v'
p335
aS'^'
p336
aa(lp337
S'^'
p338
aS'None'
p339
aS'<'
p340
aS'v'
p341
aS'^'
p342
aS'v'
p343
aS'>'
p344
aS'v'
p345
aS'None'
p346
aS'^'
p347
aS'v'
p348
aS'v'
p349
aS'>'
p350
aS'<'
p351
aS'None'
p352
aS'<'
p353
aS'^'
p354
aS'<'
p355
aS'v'
p356
aS'v'
p357
aa(lp358
S'^'
p359
aS'None'
p360
aS'>'
p361
aS'>'
p362
aS'<'
p363
aS'>'
p364
aS'v'
p365
aS'None'
p366
aS'>'
p367
aS'>'
p368
aS'^'
p369
aS'^'
p370
aS'v'
p371
aS'^'
p372
aS'None'
p373
aS'>'
p374
aS'<'
p375
aS'v'
p376
aS'v'
p377
aS'<'
p378
aa(lp379
S'^'
p380
aS'None'
p381
aS'>'
p382
aS'^'
p383
aS'<'
p384
aS'>'
p385
aS'^'
p386
aS'None'
p387
aS'>'
p388
aS'^'
p389
aS'<'
p390
aS'<'
p391
aS'^'
p392
aS'>'
p393
aS'None'
p394
aS'v'
p395
aS'>'
p396
aS'v'
p397
aS'<'
p398
aS'>'
p399
aa(lp400
S'^'
p401
aS'None'
p402
aS'>'
p403
aS'^'
p404
aS'>'
p405
aS'<'
p406
aS'>'
p407
aS'>'
p408
aS'>'
p409
aS'^'
p410
aS'>'
p411
aS'^'
p412
aS'^'
p413
aS'>'
p414
aS'>'
p415
aS'>'
p416
aS'>'
p417
aS'>'
p418
aS'v'
p419
aS'v'
p420
aa.