(lp0
(lp1
S'>'
p2
aS'<'
p3
aS'>'
p4
aS'v'
p5
aS'^'
p6
aS'<'
p7
aS'>'
p8
aS'v'
p9
aS'^'
p10
aS'>'
p11
aS'^'
p12
aS'v'
p13
aS'^'
p14
aS'^'
p15
aS'^'
p16
aS'>'
p17
aS'v'
p18
aS'<'
p19
aS'>'
p20
aS'>'
p21
aa(lp22
S'>'
p23
aS'<'
p24
aS'<'
p25
aS'<'
p26
aS'^'
p27
aS'<'
p28
aS'>'
p29
aS'>'
p30
aS'>'
p31
aS'v'
p32
aS'None'
p33
aS'<'
p34
aS'>'
p35
aS'v'
p36
aS'^'
p37
aS'v'
p38
aS'>'
p39
aS'<'
p40
aS'v'
p41
aS'>'
p42
aa(lp43
S'>'
p44
aS'v'
p45
aS'^'
p46
aS'>'
p47
aS'>'
p48
aS'<'
p49
aS'^'
p50
aS'>'
p51
aS'>'
p52
aS'v'
p53
aS'>'
p54
aS'v'
p55
aS'<'
p56
aS'>'
p57
aS'>'
p58
aS'>'
p59
aS'>'
p60
aS'v'
p61
aS'v'
p62
aS'v'
p63
aa(lp64
S'<'
p65
aS'v'
p66
aS'>'
p67
aS'v'
p68
aS'^'
p69
aS'<'
p70
aS'>'
p71
aS'>'
p72
aS'v'
p73
aS'<'
p74
aS'>'
p75
aS'v'
p76
aS'<'
p77
aS'<'
p78
aS'<'
p79
aS'^'
p80
aS'>'
p81
aS'<'
p82
aS'^'
p83
aS'^'
p84
aa(lp85
S'>'
p86
aS'>'
p87
aS'<'
p88
aS'^'
p89
aS'v'
p90
aS'<'
p91
aS'>'
p92
aS'v'
p93
aS'>'
p94
aS'>'
p95
aS'v'
p96
aS'v'
p97
aS'^'
p98
aS'>'
p99
aS'>'
p100
aS'<'
p101
aS'v'
p102
aS'<'
p103
aS'None'
p104
aS'v'
p105
aa(lp106
S'<'
p107
aS'^'
p108
aS'<'
p109
aS'v'
p110
aS'>'
p111
aS'v'
p112
aS'<'
p113
aS'^'
p114
aS'None'
p115
aS'v'
p116
aS'^'
p117
aS'<'
p118
aS'>'
p119
aS'v'
p120
aS'>'
p121
aS'<'
p122
aS'^'
p123
aS'None'
p124
aS'^'
p125
aS'v'
p126
aa(lp127
S'<'
p128
aS'>'
p129
aS'>'
p130
aS'>'
p131
aS'v'
p132
aS'>'
p133
aS'v'
p134
aS'^'
p135
aS'v'
p136
aS'>'
p137
aS'<'
p138
aS'>'
p139
aS'<'
p140
aS'<'
p141
aS'^'
p142
aS'<'
p143
aS'None'
p144
aS'v'
p145
aS'^'
p146
aS'<'
p147
aa(lp148
S'v'
p149
aS'v'
p150
aS'>'
p151
aS'<'
p152
aS'v'
p153
aS'v'
p154
aS'None'
p155
aS'None'
p156
aS'v'
p157
aS'^'
p158
aS'v'
p159
aS'>'
p160
aS'<'
p161
aS'<'
p162
aS'>'
p163
aS'None'
p164
aS'v'
p165
aS'^'
p166
aS'<'
p167
aS'v'
p168
aa(lp169
S'^'
p170
aS'<'
p171
aS'v'
p172
aS'v'
p173
aS'>'
p174
aS'>'
p175
aS'^'
p176
aS'^'
p177
aS'None'
p178
aS'^'
p179
aS'>'
p180
aS'>'
p181
aS'^'
p182
aS'v'
p183
aS'None'
p184
aS'>'
p185
aS'^'
p186
aS'^'
p187
aS'<'
p188
aS'v'
p189
aa(lp190
S'<'
p191
aS'<'
p192
aS'v'
p193
aS'None'
p194
aS'<'
p195
aS'^'
p196
aS'<'
p197
aS'>'
p198
aS'^'
p199
aS'None'
p200
aS'v'
p201
aS'^'
p202
aS'None'
p203
aS'None'
p204
aS'<'
p205
aS'>'
p206
aS'^'
p207
aS'>'
p208
aS'<'
p209
aS'<'
p210
aa(lp211
S'^'
p212
aS'v'
p213
aS'None'
p214
aS'>'
p215
aS'None'
p216
aS'v'
p217
aS'>'
p218
aS'v'
p219
aS'^'
p220
aS'>'
p221
aS'None'
p222
aS'None'
p223
aS'v'
p224
aS'<'
p225
aS'^'
p226
aS'>'
p227
aS'<'
p228
aS'v'
p229
aS'v'
p230
aS'^'
p231
aa(lp232
S'v'
p233
aS'None'
p234
aS'<'
p235
aS'>'
p236
aS'<'
p237
aS'None'
p238
aS'v'
p239
aS'>'
p240
aS'v'
p241
aS'v'
p242
aS'^'
p243
aS'>'
p244
aS'None'
p245
aS'>'
p246
aS'^'
p247
aS'>'
p248
aS'^'
p249
aS'^'
p250
aS'v'
p251
aS'v'
p252
aa(lp253
S'^'
p254
aS'None'
p255
aS'>'
p256
aS'>'
p257
aS'v'
p258
aS'v'
p259
aS'None'
p260
aS'>'
p261
aS'v'
p262
aS'^'
p263
aS'^'
p264
aS'>'
p265
aS'>'
p266
aS'v'
p267
aS'^'
p268
aS'^'
p269
aS'<'
p270
aS'^'
p271
aS'>'
p272
aS'^'
p273
aa(lp274
S'<'
p275
aS'v'
p276
aS'^'
p277
aS'^'
p278
aS'^'
p279
aS'None'
p280
aS'>'
p281
aS'>'
p282
aS'<'
p283
aS'>'
p284
aS'^'
p285
aS'None'
p286
aS'<'
p287
aS'<'
p288
aS'None'
p289
aS'>'
p290
aS'^'
p291
aS'v'
p292
aS'>'
p293
aS'<'
p294
aa(lp295
S'v'
p296
aS'None'
p297
aS'v'
p298
aS'>'
p299
aS'None'
p300
aS'v'
p301
aS'<'
p302
aS'<'
p303
aS'<'
p304
aS'^'
p305
aS'None'
p306
aS'<'
p307
aS'^'
p308
aS'<'
p309
aS'None'
p310
aS'<'
p311
aS'>'
p312
aS'>'
p313
aS'^'
p314
aS'^'
p315
aa(lp316
S'v'
p317
aS'None'
p318
aS'>'
p319
aS'>'
p320
aS'v'
p321
aS'None'
p322
aS'v'
p323
aS'^'
p324
aS'<'
p325
aS'None'
p326
aS'v'
p327
aS'>'
p328
aS'^'
p329
aS'>'
p330
aS'None'
p331
aS'None'
p332
aS'None'
p333
aS'None'
p334
aS'^'
p335
aS'^'
p336
aa(lp337
S'v'
p338
aS'None'
p339
aS'v'
p340
aS'^'
p341
aS'^'
p342
aS'>'
p343
aS'^'
p344
aS'>'
p345
aS'None'
p346
aS'>'
p347
aS'^'
p348
aS'<'
p349
aS'<'
p350
aS'<'
p351
aS'None'
p352
aS'>'
p353
aS'v'
p354
aS'^'
p355
aS'<'
p356
aS'>'
p357
aa(lp358
S'v'
p359
aS'None'
p360
aS'<'
p361
aS'^'
p362
aS'<'
p363
aS'^'
p364
aS'>'
p365
aS'None'
p366
aS'>'
p367
aS'>'
p368
aS'^'
p369
aS'v'
p370
aS'^'
p371
aS'<'
p372
aS'None'
p373
aS'v'
p374
aS'v'
p375
aS'^'
p376
aS'v'
p377
aS'v'
p378
aa(lp379
S'<'
p380
aS'None'
p381
aS'v'
p382
aS'<'
p383
aS'v'
p384
aS'>'
p385
aS'v'
p386
aS'None'
p387
aS'^'
p388
aS'v'
p389
aS'>'
p390
aS'^'
p391
aS'>'
p392
aS'>'
p393
aS'None'
p394
aS'>'
p395
aS'<'
p396
aS'>'
p397
aS'v'
p398
aS'<'
p399
aa(lp400
S'<'
p401
aS'None'
p402
aS'v'
p403
aS'v'
p404
aS'v'
p405
aS'<'
p406
aS'<'
p407
aS'^'
p408
aS'v'
p409
aS'>'
p410
aS'<'
p411
aS'v'
p412
aS'>'
p413
aS'<'
p414
aS'^'
p415
aS'>'
p416
aS'v'
p417
aS'>'
p418
aS'v'
p419
aS'>'
p420
aa.