(lp0
(lp1
S'>'
p2
aS'>'
p3
aS'>'
p4
aS'^'
p5
aS'>'
p6
aS'v'
p7
aS'<'
p8
aS'>'
p9
aS'v'
p10
aS'<'
p11
aS'<'
p12
aS'v'
p13
aS'v'
p14
aS'>'
p15
aS'>'
p16
aS'<'
p17
aS'>'
p18
aS'<'
p19
aS'>'
p20
aS'<'
p21
aa(lp22
S'v'
p23
aS'v'
p24
aS'>'
p25
aS'<'
p26
aS'^'
p27
aS'<'
p28
aS'^'
p29
aS'>'
p30
aS'>'
p31
aS'<'
p32
aS'None'
p33
aS'v'
p34
aS'>'
p35
aS'v'
p36
aS'>'
p37
aS'^'
p38
aS'v'
p39
aS'>'
p40
aS'v'
p41
aS'^'
p42
aa(lp43
S'v'
p44
aS'<'
p45
aS'<'
p46
aS'v'
p47
aS'v'
p48
aS'v'
p49
aS'v'
p50
aS'^'
p51
aS'v'
p52
aS'^'
p53
aS'v'
p54
aS'>'
p55
aS'>'
p56
aS'v'
p57
aS'<'
p58
aS'<'
p59
aS'v'
p60
aS'v'
p61
aS'v'
p62
aS'<'
p63
aa(lp64
S'<'
p65
aS'v'
p66
aS'<'
p67
aS'>'
p68
aS'>'
p69
aS'v'
p70
aS'^'
p71
aS'^'
p72
aS'v'
p73
aS'<'
p74
aS'v'
p75
aS'^'
p76
aS'^'
p77
aS'^'
p78
aS'^'
p79
aS'v'
p80
aS'>'
p81
aS'>'
p82
aS'<'
p83
aS'>'
p84
aa(lp85
S'^'
p86
aS'>'
p87
aS'^'
p88
aS'>'
p89
aS'v'
p90
aS'>'
p91
aS'v'
p92
aS'>'
p93
aS'<'
p94
aS'<'
p95
aS'v'
p96
aS'<'
p97
aS'v'
p98
aS'<'
p99
aS'>'
p100
aS'^'
p101
aS'<'
p102
aS'<'
p103
aS'None'
p104
aS'<'
p105
aa(lp106
S'>'
p107
aS'^'
p108
aS'^'
p109
aS'>'
p110
aS'^'
p111
aS'<'
p112
aS'>'
p113
aS'<'
p114
aS'None'
p115
aS'^'
p116
aS'<'
p117
aS'^'
p118
aS'>'
p119
aS'>'
p120
aS'v'
p121
aS'>'
p122
aS'<'
p123
aS'None'
p124
aS'>'
p125
aS'v'
p126
aa(lp127
S'^'
p128
aS'^'
p129
aS'^'
p130
aS'>'
p131
aS'>'
p132
aS'>'
p133
aS'^'
p134
aS'v'
p135
aS'>'
p136
aS'>'
p137
aS'>'
p138
aS'^'
p139
aS'v'
p140
aS'<'
p141
aS'v'
p142
aS'v'
p143
aS'None'
p144
aS'^'
p145
aS'^'
p146
aS'v'
p147
aa(lp148
S'v'
p149
aS'<'
p150
aS'<'
p151
aS'>'
p152
aS'<'
p153
aS'v'
p154
aS'None'
p155
aS'None'
p156
aS'^'
p157
aS'v'
p158
aS'v'
p159
aS'v'
p160
aS'>'
p161
aS'>'
p162
aS'^'
p163
aS'None'
p164
aS'^'
p165
aS'<'
p166
aS'v'
p167
aS'<'
p168
aa(lp169
S'>'
p170
aS'v'
p171
aS'>'
p172
aS'<'
p173
aS'<'
p174
aS'>'
p175
aS'<'
p176
aS'^'
p177
aS'None'
p178
aS'>'
p179
aS'v'
p180
aS'^'
p181
aS'>'
p182
aS'^'
p183
aS'None'
p184
aS'<'
p185
aS'^'
p186
aS'>'
p187
aS'^'
p188
aS'v'
p189
aa(lp190
S'>'
p191
aS'v'
p192
aS'v'
p193
aS'None'
p194
aS'>'
p195
aS'>'
p196
aS'^'
p197
aS'^'
p198
aS'^'
p199
aS'None'
p200
aS'^'
p201
aS'<'
p202
aS'None'
p203
aS'None'
p204
aS'^'
p205
aS'<'
p206
aS'<'
p207
aS'<'
p208
aS'>'
p209
aS'>'
p210
aa(lp211
S'>'
p212
aS'<'
p213
aS'None'
p214
aS'>'
p215
aS'None'
p216
aS'^'
p217
aS'>'
p218
aS'>'
p219
aS'v'
p220
aS'^'
p221
aS'None'
p222
aS'None'
p223
aS'<'
p224
aS'>'
p225
aS'^'
p226
aS'^'
p227
aS'<'
p228
aS'>'
p229
aS'<'
p230
aS'<'
p231
aa(lp232
S'<'
p233
aS'None'
p234
aS'>'
p235
aS'^'
p236
aS'<'
p237
aS'None'
p238
aS'>'
p239
aS'<'
p240
aS'^'
p241
aS'>'
p242
aS'v'
p243
aS'^'
p244
aS'None'
p245
aS'<'
p246
aS'^'
p247
aS'v'
p248
aS'^'
p249
aS'>'
p250
aS'<'
p251
aS'>'
p252
aa(lp253
S'<'
p254
aS'None'
p255
aS'^'
p256
aS'^'
p257
aS'>'
p258
aS'>'
p259
aS'None'
p260
aS'<'
p261
aS'>'
p262
aS'^'
p263
aS'<'
p264
aS'>'
p265
aS'<'
p266
aS'<'
p267
aS'v'
p268
aS'^'
p269
aS'^'
p270
aS'>'
p271
aS'^'
p272
aS'<'
p273
aa(lp274
S'^'
p275
aS'<'
p276
aS'>'
p277
aS'>'
p278
aS'<'
p279
aS'None'
p280
aS'>'
p281
aS'<'
p282
aS'v'
p283
aS'<'
p284
aS'v'
p285
aS'None'
p286
aS'^'
p287
aS'^'
p288
aS'None'
p289
aS'<'
p290
aS'v'
p291
aS'>'
p292
aS'v'
p293
aS'>'
p294
aa(lp295
S'>'
p296
aS'None'
p297
aS'>'
p298
aS'v'
p299
aS'None'
p300
aS'^'
p301
aS'>'
p302
aS'v'
p303
aS'v'
p304
aS'<'
p305
aS'None'
p306
aS'<'
p307
aS'<'
p308
aS'<'
p309
aS'None'
p310
aS'v'
p311
aS'^'
p312
aS'>'
p313
aS'>'
p314
aS'v'
p315
aa(lp316
S'v'
p317
aS'None'
p318
aS'>'
p319
aS'>'
p320
aS'^'
p321
aS'None'
p322
aS'v'
p323
aS'v'
p324
aS'^'
p325
aS'None'
p326
aS'^'
p327
aS'>'
p328
aS'^'
p329
aS'<'
p330
aS'None'
p331
aS'None'
p332
aS'None'
p333
aS'None'
p334
aS'^'
p335
aS'<'
p336
aa(lp337
S'v'
p338
aS'None'
p339
aS'<'
p340
aS'<'
p341
aS'^'
p342
aS'<'
p343
aS'^'
p344
aS'>'
p345
aS'None'
p346
aS'<'
p347
aS'v'
p348
aS'<'
p349
aS'v'
p350
aS'<'
p351
aS'None'
p352
aS'v'
p353
aS'<'
p354
aS'>'
p355
aS'^'
p356
aS'>'
p357
aa(lp358
S'v'
p359
aS'None'
p360
aS'v'
p361
aS'<'
p362
aS'<'
p363
aS'<'
p364
aS'^'
p365
aS'None'
p366
aS'^'
p367
aS'^'
p368
aS'<'
p369
aS'v'
p370
aS'v'
p371
aS'<'
p372
aS'None'
p373
aS'<'
p374
aS'<'
p375
aS'>'
p376
aS'^'
p377
aS'<'
p378
aa(lp379
S'v'
p380
aS'None'
p381
aS'>'
p382
aS'<'
p383
aS'^'
p384
aS'v'
p385
aS'v'
p386
aS'None'
p387
aS'^'
p388
aS'<'
p389
aS'^'
p390
aS'<'
p391
aS'>'
p392
aS'>'
p393
aS'None'
p394
aS'<'
p395
aS'v'
p396
aS'^'
p397
aS'^'
p398
aS'<'
p399
aa(lp400
S'v'
p401
aS'None'
p402
aS'^'
p403
aS'^'
p404
aS'>'
p405
aS'^'
p406
aS'^'
p407
aS'<'
p408
aS'v'
p409
aS'>'
p410
aS'<'
p411
aS'v'
p412
aS'^'
p413
aS'<'
p414
aS'>'
p415
aS'v'
p416
aS'v'
p417
aS'>'
p418
aS'>'
p419
aS'^'
p420
aa.