(lp0
(lp1
S'v'
p2
aS'v'
p3
aS'v'
p4
aS'>'
p5
aS'^'
p6
aS'<'
p7
aS'v'
p8
aS'<'
p9
aS'^'
p10
aS'<'
p11
aS'^'
p12
aS'<'
p13
aS'v'
p14
aS'v'
p15
aS'v'
p16
aS'v'
p17
aS'<'
p18
aS'>'
p19
aS'v'
p20
aS'<'
p21
aa(lp22
S'<'
p23
aS'^'
p24
aS'>'
p25
aS'v'
p26
aS'^'
p27
aS'^'
p28
aS'^'
p29
aS'^'
p30
aS'<'
p31
aS'>'
p32
aS'None'
p33
aS'v'
p34
aS'^'
p35
aS'^'
p36
aS'<'
p37
aS'<'
p38
aS'^'
p39
aS'>'
p40
aS'<'
p41
aS'^'
p42
aa(lp43
S'v'
p44
aS'<'
p45
aS'v'
p46
aS'^'
p47
aS'<'
p48
aS'<'
p49
aS'v'
p50
aS'>'
p51
aS'^'
p52
aS'^'
p53
aS'^'
p54
aS'>'
p55
aS'>'
p56
aS'<'
p57
aS'^'
p58
aS'v'
p59
aS'^'
p60
aS'<'
p61
aS'^'
p62
aS'<'
p63
aa(lp64
S'v'
p65
aS'<'
p66
aS'<'
p67
aS'v'
p68
aS'^'
p69
aS'<'
p70
aS'^'
p71
aS'<'
p72
aS'<'
p73
aS'^'
p74
aS'<'
p75
aS'^'
p76
aS'v'
p77
aS'v'
p78
aS'v'
p79
aS'<'
p80
aS'>'
p81
aS'>'
p82
aS'^'
p83
aS'^'
p84
aa(lp85
S'<'
p86
aS'^'
p87
aS'v'
p88
aS'<'
p89
aS'^'
p90
aS'^'
p91
aS'^'
p92
aS'v'
p93
aS'<'
p94
aS'v'
p95
aS'^'
p96
aS'<'
p97
aS'>'
p98
aS'>'
p99
aS'v'
p100
aS'>'
p101
aS'^'
p102
aS'v'
p103
aS'None'
p104
aS'v'
p105
aa(lp106
S'<'
p107
aS'^'
p108
aS'^'
p109
aS'^'
p110
aS'>'
p111
aS'<'
p112
aS'v'
p113
aS'>'
p114
aS'None'
p115
aS'^'
p116
aS'^'
p117
aS'v'
p118
aS'^'
p119
aS'>'
p120
aS'^'
p121
aS'<'
p122
aS'^'
p123
aS'None'
p124
aS'^'
p125
aS'v'
p126
aa(lp127
S'^'
p128
aS'^'
p129
aS'^'
p130
aS'v'
p131
aS'^'
p132
aS'^'
p133
aS'v'
p134
aS'>'
p135
aS'<'
p136
aS'<'
p137
aS'<'
p138
aS'>'
p139
aS'>'
p140
aS'^'
p141
aS'v'
p142
aS'v'
p143
aS'None'
p144
aS'>'
p145
aS'>'
p146
aS'<'
p147
aa(lp148
S'v'
p149
aS'v'
p150
aS'v'
p151
aS'v'
p152
aS'v'
p153
aS'v'
p154
aS'None'
p155
aS'None'
p156
aS'<'
p157
aS'^'
p158
aS'<'
p159
aS'>'
p160
aS'^'
p161
aS'v'
p162
aS'>'
p163
aS'None'
p164
aS'>'
p165
aS'v'
p166
aS'v'
p167
aS'v'
p168
aa(lp169
S'v'
p170
aS'v'
p171
aS'v'
p172
aS'<'
p173
aS'<'
p174
aS'v'
p175
aS'>'
p176
aS'^'
p177
aS'None'
p178
aS'>'
p179
aS'<'
p180
aS'v'
p181
aS'v'
p182
aS'v'
p183
aS'None'
p184
aS'>'
p185
aS'v'
p186
aS'>'
p187
aS'v'
p188
aS'^'
p189
aa(lp190
S'>'
p191
aS'v'
p192
aS'<'
p193
aS'None'
p194
aS'v'
p195
aS'^'
p196
aS'^'
p197
aS'v'
p198
aS'<'
p199
aS'None'
p200
aS'^'
p201
aS'^'
p202
aS'None'
p203
aS'None'
p204
aS'v'
p205
aS'^'
p206
aS'<'
p207
aS'v'
p208
aS'<'
p209
aS'v'
p210
aa(lp211
S'^'
p212
aS'<'
p213
aS'None'
p214
aS'v'
p215
aS'None'
p216
aS'<'
p217
aS'<'
p218
aS'v'
p219
aS'>'
p220
aS'>'
p221
aS'None'
p222
aS'None'
p223
aS'<'
p224
aS'>'
p225
aS'>'
p226
aS'^'
p227
aS'>'
p228
aS'>'
p229
aS'>'
p230
aS'v'
p231
aa(lp232
S'^'
p233
aS'None'
p234
aS'<'
p235
aS'^'
p236
aS'>'
p237
aS'None'
p238
aS'^'
p239
aS'>'
p240
aS'v'
p241
aS'^'
p242
aS'^'
p243
aS'<'
p244
aS'None'
p245
aS'>'
p246
aS'^'
p247
aS'v'
p248
aS'<'
p249
aS'>'
p250
aS'^'
p251
aS'<'
p252
aa(lp253
S'>'
p254
aS'None'
p255
aS'>'
p256
aS'^'
p257
aS'>'
p258
aS'>'
p259
aS'None'
p260
aS'v'
p261
aS'v'
p262
aS'v'
p263
aS'>'
p264
aS'^'
p265
aS'<'
p266
aS'v'
p267
aS'<'
p268
aS'>'
p269
aS'^'
p270
aS'v'
p271
aS'<'
p272
aS'<'
p273
aa(lp274
S'^'
p275
aS'^'
p276
aS'>'
p277
aS'v'
p278
aS'<'
p279
aS'None'
p280
aS'v'
p281
aS'>'
p282
aS'v'
p283
aS'^'
p284
aS'v'
p285
aS'None'
p286
aS'^'
p287
aS'^'
p288
aS'None'
p289
aS'>'
p290
aS'>'
p291
aS'>'
p292
aS'v'
p293
aS'<'
p294
aa(lp295
S'v'
p296
aS'None'
p297
aS'>'
p298
aS'>'
p299
aS'None'
p300
aS'^'
p301
aS'>'
p302
aS'v'
p303
aS'<'
p304
aS'>'
p305
aS'None'
p306
aS'>'
p307
aS'<'
p308
aS'^'
p309
aS'None'
p310
aS'>'
p311
aS'>'
p312
aS'^'
p313
aS'v'
p314
aS'<'
p315
aa(lp316
S'v'
p317
aS'None'
p318
aS'>'
p319
aS'^'
p320
aS'<'
p321
aS'None'
p322
aS'<'
p323
aS'v'
p324
aS'^'
p325
aS'None'
p326
aS'>'
p327
aS'^'
p328
aS'^'
p329
aS'v'
p330
aS'None'
p331
aS'None'
p332
aS'None'
p333
aS'None'
p334
aS'<'
p335
aS'v'
p336
aa(lp337
S'v'
p338
aS'None'
p339
aS'v'
p340
aS'^'
p341
aS'<'
p342
aS'v'
p343
aS'^'
p344
aS'<'
p345
aS'None'
p346
aS'v'
p347
aS'>'
p348
aS'^'
p349
aS'^'
p350
aS'<'
p351
aS'None'
p352
aS'>'
p353
aS'>'
p354
aS'>'
p355
aS'v'
p356
aS'v'
p357
aa(lp358
S'v'
p359
aS'None'
p360
aS'^'
p361
aS'v'
p362
aS'<'
p363
aS'<'
p364
aS'^'
p365
aS'None'
p366
aS'>'
p367
aS'<'
p368
aS'v'
p369
aS'^'
p370
aS'<'
p371
aS'<'
p372
aS'None'
p373
aS'v'
p374
aS'>'
p375
aS'>'
p376
aS'v'
p377
aS'>'
p378
aa(lp379
S'<'
p380
aS'None'
p381
aS'>'
p382
aS'^'
p383
aS'^'
p384
aS'v'
p385
aS'^'
p386
aS'None'
p387
aS'v'
p388
aS'^'
p389
aS'<'
p390
aS'v'
p391
aS'v'
p392
aS'^'
p393
aS'None'
p394
aS'>'
p395
aS'^'
p396
aS'<'
p397
aS'v'
p398
aS'<'
p399
aa(lp400
S'<'
p401
aS'None'
p402
aS'<'
p403
aS'>'
p404
aS'>'
p405
aS'^'
p406
aS'v'
p407
aS'^'
p408
aS'^'
p409
aS'^'
p410
aS'<'
p411
aS'>'
p412
aS'^'
p413
aS'>'
p414
aS'<'
p415
aS'<'
p416
aS'>'
p417
aS'^'
p418
aS'^'
p419
aS'^'
p420
aa.