(lp0
(lp1
S'>'
p2
aS'>'
p3
aS'<'
p4
aS'<'
p5
aS'>'
p6
aS'v'
p7
aS'v'
p8
aS'>'
p9
aS'v'
p10
aS'v'
p11
aS'v'
p12
aS'^'
p13
aS'^'
p14
aS'^'
p15
aS'^'
p16
aS'<'
p17
aS'^'
p18
aS'>'
p19
aS'v'
p20
aS'v'
p21
aa(lp22
S'v'
p23
aS'<'
p24
aS'>'
p25
aS'<'
p26
aS'v'
p27
aS'v'
p28
aS'^'
p29
aS'>'
p30
aS'<'
p31
aS'v'
p32
aS'None'
p33
aS'^'
p34
aS'>'
p35
aS'<'
p36
aS'>'
p37
aS'v'
p38
aS'v'
p39
aS'<'
p40
aS'<'
p41
aS'^'
p42
aa(lp43
S'<'
p44
aS'^'
p45
aS'<'
p46
aS'^'
p47
aS'>'
p48
aS'<'
p49
aS'>'
p50
aS'^'
p51
aS'<'
p52
aS'v'
p53
aS'<'
p54
aS'>'
p55
aS'>'
p56
aS'>'
p57
aS'>'
p58
aS'v'
p59
aS'>'
p60
aS'v'
p61
aS'<'
p62
aS'>'
p63
aa(lp64
S'>'
p65
aS'>'
p66
aS'>'
p67
aS'>'
p68
aS'<'
p69
aS'^'
p70
aS'<'
p71
aS'^'
p72
aS'^'
p73
aS'v'
p74
aS'^'
p75
aS'^'
p76
aS'v'
p77
aS'^'
p78
aS'<'
p79
aS'^'
p80
aS'^'
p81
aS'v'
p82
aS'<'
p83
aS'>'
p84
aa(lp85
S'^'
p86
aS'v'
p87
aS'^'
p88
aS'<'
p89
aS'v'
p90
aS'>'
p91
aS'^'
p92
aS'v'
p93
aS'v'
p94
aS'v'
p95
aS'v'
p96
aS'>'
p97
aS'^'
p98
aS'>'
p99
aS'^'
p100
aS'^'
p101
aS'>'
p102
aS'v'
p103
aS'None'
p104
aS'v'
p105
aa(lp106
S'<'
p107
aS'v'
p108
aS'v'
p109
aS'>'
p110
aS'>'
p111
aS'>'
p112
aS'v'
p113
aS'v'
p114
aS'None'
p115
aS'v'
p116
aS'<'
p117
aS'<'
p118
aS'>'
p119
aS'>'
p120
aS'^'
p121
aS'v'
p122
aS'v'
p123
aS'None'
p124
aS'<'
p125
aS'^'
p126
aa(lp127
S'v'
p128
aS'>'
p129
aS'v'
p130
aS'v'
p131
aS'>'
p132
aS'>'
p133
aS'v'
p134
aS'^'
p135
aS'>'
p136
aS'v'
p137
aS'^'
p138
aS'<'
p139
aS'<'
p140
aS'>'
p141
aS'^'
p142
aS'<'
p143
aS'None'
p144
aS'^'
p145
aS'<'
p146
aS'v'
p147
aa(lp148
S'>'
p149
aS'^'
p150
aS'v'
p151
aS'v'
p152
aS'>'
p153
aS'>'
p154
aS'None'
p155
aS'None'
p156
aS'<'
p157
aS'<'
p158
aS'>'
p159
aS'<'
p160
aS'^'
p161
aS'>'
p162
aS'^'
p163
aS'None'
p164
aS'<'
p165
aS'>'
p166
aS'<'
p167
aS'^'
p168
aa(lp169
S'>'
p170
aS'>'
p171
aS'v'
p172
aS'v'
p173
aS'v'
p174
aS'v'
p175
aS'>'
p176
aS'v'
p177
aS'None'
p178
aS'v'
p179
aS'>'
p180
aS'v'
p181
aS'v'
p182
aS'>'
p183
aS'None'
p184
aS'>'
p185
aS'^'
p186
aS'v'
p187
aS'>'
p188
aS'^'
p189
aa(lp190
S'>'
p191
aS'<'
p192
aS'<'
p193
aS'None'
p194
aS'^'
p195
aS'v'
p196
aS'^'
p197
aS'<'
p198
aS'^'
p199
aS'None'
p200
aS'<'
p201
aS'^'
p202
aS'None'
p203
aS'None'
p204
aS'>'
p205
aS'v'
p206
aS'v'
p207
aS'v'
p208
aS'v'
p209
aS'>'
p210
aa(lp211
S'v'
p212
aS'<'
p213
aS'None'
p214
aS'>'
p215
aS'None'
p216
aS'v'
p217
aS'v'
p218
aS'^'
p219
aS'<'
p220
aS'>'
p221
aS'None'
p222
aS'None'
p223
aS'>'
p224
aS'^'
p225
aS'v'
p226
aS'v'
p227
aS'^'
p228
aS'<'
p229
aS'>'
p230
aS'v'
p231
aa(lp232
S'<'
p233
aS'None'
p234
aS'>'
p235
aS'>'
p236
aS'v'
p237
aS'None'
p238
aS'>'
p239
aS'^'
p240
aS'^'
p241
aS'>'
p242
aS'^'
p243
aS'>'
p244
aS'None'
p245
aS'v'
p246
aS'<'
p247
aS'<'
p248
aS'v'
p249
aS'<'
p250
aS'>'
p251
aS'<'
p252
aa(lp253
S'^'
p254
aS'None'
p255
aS'^'
p256
aS'v'
p257
aS'>'
p258
aS'^'
p259
aS'None'
p260
aS'>'
p261
aS'^'
p262
aS'^'
p263
aS'^'
p264
aS'v'
p265
aS'<'
p266
aS'v'
p267
aS'^'
p268
aS'^'
p269
aS'^'
p270
aS'^'
p271
aS'v'
p272
aS'v'
p273
aa(lp274
S'<'
p275
aS'^'
p276
aS'^'
p277
aS'^'
p278
aS'>'
p279
aS'None'
p280
aS'^'
p281
aS'<'
p282
aS'>'
p283
aS'<'
p284
aS'v'
p285
aS'None'
p286
aS'<'
p287
aS'<'
p288
aS'None'
p289
aS'<'
p290
aS'>'
p291
aS'>'
p292
aS'^'
p293
aS'^'
p294
aa(lp295
S'v'
p296
aS'None'
p297
aS'v'
p298
aS'v'
p299
aS'None'
p300
aS'^'
p301
aS'^'
p302
aS'<'
p303
aS'v'
p304
aS'v'
p305
aS'None'
p306
aS'^'
p307
aS'>'
p308
aS'<'
p309
aS'None'
p310
aS'<'
p311
aS'v'
p312
aS'<'
p313
aS'>'
p314
aS'<'
p315
aa(lp316
S'v'
p317
aS'None'
p318
aS'<'
p319
aS'^'
p320
aS'v'
p321
aS'None'
p322
aS'>'
p323
aS'^'
p324
aS'v'
p325
aS'None'
p326
aS'v'
p327
aS'^'
p328
aS'<'
p329
aS'<'
p330
aS'None'
p331
aS'None'
p332
aS'None'
p333
aS'None'
p334
aS'v'
p335
aS'v'
p336
aa(lp337
S'v'
p338
aS'None'
p339
aS'v'
p340
aS'^'
p341
aS'>'
p342
aS'v'
p343
aS'>'
p344
aS'^'
p345
aS'None'
p346
aS'^'
p347
aS'^'
p348
aS'>'
p349
aS'^'
p350
aS'^'
p351
aS'None'
p352
aS'^'
p353
aS'>'
p354
aS'<'
p355
aS'<'
p356
aS'v'
p357
aa(lp358
S'v'
p359
aS'None'
p360
aS'<'
p361
aS'>'
p362
aS'<'
p363
aS'^'
p364
aS'v'
p365
aS'None'
p366
aS'^'
p367
aS'<'
p368
aS'v'
p369
aS'v'
p370
aS'<'
p371
aS'<'
p372
aS'None'
p373
aS'<'
p374
aS'v'
p375
aS'<'
p376
aS'<'
p377
aS'^'
p378
aa(lp379
S'v'
p380
aS'None'
p381
aS'^'
p382
aS'<'
p383
aS'^'
p384
aS'<'
p385
aS'^'
p386
aS'None'
p387
aS'>'
p388
aS'v'
p389
aS'^'
p390
aS'<'
p391
aS'>'
p392
aS'>'
p393
aS'None'
p394
aS'v'
p395
aS'>'
p396
aS'^'
p397
aS'v'
p398
aS'<'
p399
aa(lp400
S'<'
p401
aS'None'
p402
aS'^'
p403
aS'^'
p404
aS'v'
p405
aS'v'
p406
aS'v'
p407
aS'^'
p408
aS'^'
p409
aS'v'
p410
aS'v'
p411
aS'>'
p412
aS'v'
p413
aS'v'
p414
aS'<'
p415
aS'^'
p416
aS'v'
p417
aS'>'
p418
aS'^'
p419
aS'^'
p420
aa.