(lp0
(lp1
S'<'
p2
aS'v'
p3
aS'<'
p4
aS'v'
p5
aS'v'
p6
aS'v'
p7
aS'v'
p8
aS'<'
p9
aS'v'
p10
aS'^'
p11
aS'<'
p12
aS'<'
p13
aS'>'
p14
aS'>'
p15
aS'v'
p16
aS'<'
p17
aS'>'
p18
aS'v'
p19
aS'>'
p20
aS'<'
p21
aa(lp22
S'v'
p23
aS'^'
p24
aS'^'
p25
aS'^'
p26
aS'v'
p27
aS'<'
p28
aS'>'
p29
aS'>'
p30
aS'>'
p31
aS'v'
p32
aS'None'
p33
aS'^'
p34
aS'v'
p35
aS'>'
p36
aS'^'
p37
aS'<'
p38
aS'>'
p39
aS'v'
p40
aS'v'
p41
aS'^'
p42
aa(lp43
S'v'
p44
aS'>'
p45
aS'^'
p46
aS'v'
p47
aS'<'
p48
aS'^'
p49
aS'v'
p50
aS'>'
p51
aS'>'
p52
aS'^'
p53
aS'v'
p54
aS'^'
p55
aS'<'
p56
aS'^'
p57
aS'<'
p58
aS'v'
p59
aS'>'
p60
aS'>'
p61
aS'<'
p62
aS'^'
p63
aa(lp64
S'^'
p65
aS'<'
p66
aS'v'
p67
aS'^'
p68
aS'<'
p69
aS'v'
p70
aS'^'
p71
aS'<'
p72
aS'<'
p73
aS'v'
p74
aS'>'
p75
aS'v'
p76
aS'^'
p77
aS'>'
p78
aS'>'
p79
aS'v'
p80
aS'>'
p81
aS'^'
p82
aS'>'
p83
aS'>'
p84
aa(lp85
S'v'
p86
aS'<'
p87
aS'v'
p88
aS'>'
p89
aS'>'
p90
aS'v'
p91
aS'>'
p92
aS'>'
p93
aS'^'
p94
aS'^'
p95
aS'v'
p96
aS'>'
p97
aS'>'
p98
aS'^'
p99
aS'>'
p100
aS'v'
p101
aS'^'
p102
aS'>'
p103
aS'None'
p104
aS'>'
p105
aa(lp106
S'^'
p107
aS'>'
p108
aS'>'
p109
aS'>'
p110
aS'^'
p111
aS'^'
p112
aS'>'
p113
aS'>'
p114
aS'None'
p115
aS'>'
p116
aS'^'
p117
aS'<'
p118
aS'>'
p119
aS'<'
p120
aS'v'
p121
aS'>'
p122
aS'^'
p123
aS'None'
p124
aS'>'
p125
aS'^'
p126
aa(lp127
S'^'
p128
aS'v'
p129
aS'>'
p130
aS'^'
p131
aS'v'
p132
aS'>'
p133
aS'<'
p134
aS'v'
p135
aS'>'
p136
aS'>'
p137
aS'^'
p138
aS'>'
p139
aS'>'
p140
aS'>'
p141
aS'^'
p142
aS'^'
p143
aS'None'
p144
aS'<'
p145
aS'^'
p146
aS'^'
p147
aa(lp148
S'<'
p149
aS'v'
p150
aS'>'
p151
aS'v'
p152
aS'v'
p153
aS'^'
p154
aS'None'
p155
aS'None'
p156
aS'<'
p157
aS'v'
p158
aS'v'
p159
aS'v'
p160
aS'>'
p161
aS'>'
p162
aS'v'
p163
aS'None'
p164
aS'^'
p165
aS'^'
p166
aS'>'
p167
aS'v'
p168
aa(lp169
S'^'
p170
aS'>'
p171
aS'<'
p172
aS'<'
p173
aS'>'
p174
aS'<'
p175
aS'v'
p176
aS'<'
p177
aS'None'
p178
aS'^'
p179
aS'>'
p180
aS'<'
p181
aS'v'
p182
aS'v'
p183
aS'None'
p184
aS'^'
p185
aS'^'
p186
aS'v'
p187
aS'^'
p188
aS'>'
p189
aa(lp190
S'v'
p191
aS'>'
p192
aS'<'
p193
aS'None'
p194
aS'>'
p195
aS'>'
p196
aS'^'
p197
aS'>'
p198
aS'<'
p199
aS'None'
p200
aS'<'
p201
aS'<'
p202
aS'None'
p203
aS'None'
p204
aS'v'
p205
aS'^'
p206
aS'v'
p207
aS'v'
p208
aS'^'
p209
aS'>'
p210
aa(lp211
S'v'
p212
aS'>'
p213
aS'None'
p214
aS'v'
p215
aS'None'
p216
aS'>'
p217
aS'^'
p218
aS'>'
p219
aS'>'
p220
aS'>'
p221
aS'None'
p222
aS'None'
p223
aS'>'
p224
aS'v'
p225
aS'v'
p226
aS'<'
p227
aS'<'
p228
aS'^'
p229
aS'v'
p230
aS'^'
p231
aa(lp232
S'v'
p233
aS'None'
p234
aS'>'
p235
aS'v'
p236
aS'<'
p237
aS'None'
p238
aS'<'
p239
aS'^'
p240
aS'<'
p241
aS'^'
p242
aS'^'
p243
aS'v'
p244
aS'None'
p245
aS'>'
p246
aS'>'
p247
aS'^'
p248
aS'v'
p249
aS'>'
p250
aS'<'
p251
aS'^'
p252
aa(lp253
S'>'
p254
aS'None'
p255
aS'>'
p256
aS'v'
p257
aS'>'
p258
aS'v'
p259
aS'None'
p260
aS'v'
p261
aS'v'
p262
aS'<'
p263
aS'v'
p264
aS'v'
p265
aS'v'
p266
aS'>'
p267
aS'>'
p268
aS'<'
p269
aS'^'
p270
aS'v'
p271
aS'>'
p272
aS'>'
p273
aa(lp274
S'^'
p275
aS'<'
p276
aS'>'
p277
aS'>'
p278
aS'v'
p279
aS'None'
p280
aS'^'
p281
aS'>'
p282
aS'<'
p283
aS'<'
p284
aS'<'
p285
aS'None'
p286
aS'>'
p287
aS'v'
p288
aS'None'
p289
aS'<'
p290
aS'v'
p291
aS'>'
p292
aS'^'
p293
aS'v'
p294
aa(lp295
S'v'
p296
aS'None'
p297
aS'>'
p298
aS'v'
p299
aS'None'
p300
aS'^'
p301
aS'<'
p302
aS'^'
p303
aS'>'
p304
aS'^'
p305
aS'None'
p306
aS'v'
p307
aS'<'
p308
aS'v'
p309
aS'None'
p310
aS'v'
p311
aS'^'
p312
aS'v'
p313
aS'^'
p314
aS'<'
p315
aa(lp316
S'<'
p317
aS'None'
p318
aS'<'
p319
aS'^'
p320
aS'<'
p321
aS'None'
p322
aS'^'
p323
aS'v'
p324
aS'>'
p325
aS'None'
p326
aS'v'
p327
aS'>'
p328
aS'>'
p329
aS'^'
p330
aS'None'
p331
aS'None'
p332
aS'None'
p333
aS'None'
p334
aS'^'
p335
aS'>'
p336
aa(lp337
S'v'
p338
aS'None'
p339
aS'^'
p340
aS'^'
p341
aS'<'
p342
aS'^'
p343
aS'v'
p344
aS'^'
p345
aS'None'
p346
aS'v'
p347
aS'>'
p348
aS'v'
p349
aS'<'
p350
aS'v'
p351
aS'None'
p352
aS'^'
p353
aS'v'
p354
aS'v'
p355
aS'>'
p356
aS'^'
p357
aa(lp358
S'v'
p359
aS'None'
p360
aS'^'
p361
aS'^'
p362
aS'>'
p363
aS'>'
p364
aS'>'
p365
aS'None'
p366
aS'<'
p367
aS'>'
p368
aS'<'
p369
aS'v'
p370
aS'v'
p371
aS'>'
p372
aS'None'
p373
aS'<'
p374
aS'<'
p375
aS'<'
p376
aS'v'
p377
aS'v'
p378
aa(lp379
S'v'
p380
aS'None'
p381
aS'^'
p382
aS'v'
p383
aS'>'
p384
aS'<'
p385
aS'v'
p386
aS'None'
p387
aS'<'
p388
aS'^'
p389
aS'v'
p390
aS'>'
p391
aS'v'
p392
aS'^'
p393
aS'None'
p394
aS'v'
p395
aS'v'
p396
aS'^'
p397
aS'^'
p398
aS'^'
p399
aa(lp400
S'v'
p401
aS'None'
p402
aS'>'
p403
aS'>'
p404
aS'^'
p405
aS'>'
p406
aS'v'
p407
aS'^'
p408
aS'v'
p409
aS'^'
p410
aS'<'
p411
aS'^'
p412
aS'<'
p413
aS'v'
p414
aS'>'
p415
aS'^'
p416
aS'<'
p417
aS'>'
p418
aS'>'
p419
aS'<'
p420
aa.